; Function Attrs: nounwind sspstrong uwtable
define internal void @colo_flush_packets(ptr noundef %opaque, ptr noundef %user_data) #0 {
entry:
  %call8 = tail call i32 @g_queue_is_empty(ptr noundef %opaque) #16
  %tobool.not9 = icmp eq i32 %call8, 0
  br i1 %tobool.not9, label %while.body.lr.ph, label %while.cond4.preheader

while.body.lr.ph:                                 ; preds = %entry
  %sendco.0.i = getelementptr inbounds nuw i8, ptr %user_data, i64 209288
  %send_list.i = getelementptr inbounds nuw i8, ptr %user_data, i64 209312
  %done.i = getelementptr inbounds nuw i8, ptr %user_data, i64 209337
  br label %while.body

while.cond4.preheader:                            ; preds = %compare_chr_send.exit, %entry
  %secondary_list = getelementptr inbounds nuw i8, ptr %opaque, i64 24
  %call510 = tail call i32 @g_queue_is_empty(ptr noundef nonnull %secondary_list) #16
  %tobool6.not11 = icmp eq i32 %call510, 0
  br i1 %tobool6.not11, label %while.body8, label %while.end11

while.body:                                       ; preds = %while.body.lr.ph, %compare_chr_send.exit
  %call2 = tail call ptr @g_queue_pop_tail(ptr noundef %opaque) #16
  %size = getelementptr inbounds nuw i8, ptr %call2, i64 24
  %0 = load i32, ptr %size, align 8
  %tobool3.not.i = icmp eq i32 %0, 0
  br i1 %tobool3.not.i, label %compare_chr_send.exit, label %if.end5.i

if.end5.i:                                        ; preds = %while.body
  %vnet_hdr_len = getelementptr inbounds nuw i8, ptr %call2, i64 40
  %1 = load i32, ptr %vnet_hdr_len, align 8
  %2 = load ptr, ptr %call2, align 8
  %call.i = tail call noalias dereferenceable_or_null(16) ptr @g_slice_alloc(i64 noundef 16) #18
  store i32 %0, ptr %call.i, align 8
  %vnet_hdr_len7.i = getelementptr inbounds nuw i8, ptr %call.i, i64 4
  store i32 %1, ptr %vnet_hdr_len7.i, align 4
  %3 = getelementptr inbounds nuw i8, ptr %call.i, i64 8
  store ptr %2, ptr %3, align 8
  tail call void @g_queue_push_tail(ptr noundef nonnull %send_list.i, ptr noundef nonnull %call.i) #16
  %4 = load i8, ptr %done.i, align 1
  %tobool17.i = trunc i8 %4 to i1
  br i1 %tobool17.i, label %if.then18.i, label %compare_chr_send.exit

if.then18.i:                                      ; preds = %if.end5.i
  %call19.i = tail call ptr @qemu_coroutine_create(ptr noundef nonnull @_compare_chr_send, ptr noundef nonnull %sendco.0.i) #16
  store ptr %call19.i, ptr %sendco.0.i, align 8
  store i8 0, ptr %done.i, align 1
  tail call void @qemu_coroutine_enter(ptr noundef %call19.i) #16
  br label %compare_chr_send.exit

compare_chr_send.exit:                            ; preds = %if.then18.i, %while.body, %if.end5.i
  tail call void @packet_destroy_partial(ptr noundef nonnull %call2, ptr noundef null) #16
  %call = tail call i32 @g_queue_is_empty(ptr noundef %opaque) #16
  %tobool.not = icmp eq i32 %call, 0
  br i1 %tobool.not, label %while.body, label %while.cond4.preheader, !llvm.loop !15

while.body8:                                      ; preds = %while.cond4.preheader, %while.body8
  %call10 = tail call ptr @g_queue_pop_tail(ptr noundef nonnull %secondary_list) #16
  tail call void @packet_destroy(ptr noundef %call10, ptr noundef null) #16
  %call5 = tail call i32 @g_queue_is_empty(ptr noundef nonnull %secondary_list) #16
  %tobool6.not = icmp eq i32 %call5, 0
  br i1 %tobool6.not, label %while.body8, label %while.end11, !llvm.loop !16

while.end11:                                      ; preds = %while.body8, %while.cond4.preheader
  ret void
}